Certificate:
    Data:
        Version: 3 (0x2)
        Serial Number: 2144935439 (0x7fd91e0f)
        Signature Algorithm: sha256WithRSAEncryption
        Issuer: C = UK, ST = London, O = Revolut, OU = Sandbox
        Validity
            Not Before: Dec  4 06:38:57 2020 GMT
            Not After : Dec  4 06:38:57 2021 GMT
        Subject: C = GB, ST = London, L = London, O = CTS, OU = IT, CN = deecode.cts.com, emailAddress = darshan.shah@cognizant.com, organizationIdentifier = PSDUK-REVCA-a4ae853f-631f-4788-add5-4d80b14a3781
        Subject Public Key Info:
            Public Key Algorithm: rsaEncryption
                RSA Public-Key: (2048 bit)
                Modulus:
                    00:c6:cc:00:97:72:5d:42:5e:26:a5:58:c5:91:dc:
                    45:97:8d:f9:7c:cc:83:2e:52:de:e4:45:d5:4b:2b:
                    cd:eb:42:71:6b:00:4c:c4:3f:2d:4b:80:c9:77:e9:
                    0a:da:11:1a:87:d4:9b:98:9f:76:8f:5d:f9:38:8e:
                    b1:7a:42:be:02:f7:2b:df:24:49:54:16:d4:5f:37:
                    58:f9:ae:b8:c8:b1:bc:02:6c:31:c0:ab:2a:73:60:
                    c6:bd:08:50:0a:cd:a2:9a:af:84:e0:03:18:e1:36:
                    e9:3f:e6:ac:dd:a9:2a:7d:d9:d6:b9:ac:6a:25:0b:
                    03:0f:8f:8e:14:a4:29:9a:57:7e:4f:7c:68:16:61:
                    c7:7e:5a:a2:d5:5b:f9:7e:e4:90:86:b5:e5:09:70:
                    51:88:e7:90:4d:d8:29:19:89:9e:37:ea:0a:29:94:
                    ef:ca:dd:be:59:82:b8:88:56:a6:3d:f1:ba:bc:b4:
                    f1:a7:12:26:c3:52:4f:42:f7:3d:5a:d5:e8:67:b2:
                    50:45:43:c4:6b:5e:ba:31:95:43:05:3d:70:85:66:
                    a5:fc:a4:65:9d:0c:b3:48:bc:db:65:4b:fa:a0:90:
                    3d:e8:45:dd:ff:1b:77:7a:59:00:bd:8f:6a:c0:46:
                    35:e4:ae:b0:65:ff:5a:9e:cc:e5:12:5f:25:35:53:
                    0a:d9
                Exponent: 65537 (0x10001)
    Signature Algorithm: sha256WithRSAEncryption
         8d:92:4b:84:10:c2:1b:c4:4c:64:8b:52:22:b5:c8:19:c0:9b:
         1d:5a:ca:e1:4f:e9:e8:17:4a:6e:71:5e:4d:69:10:00:19:f6:
         dc:f0:b9:b9:ab:35:40:72:ad:15:f1:77:2e:c4:ca:2e:9b:b5:
         29:94:1b:80:78:46:63:74:8a:14:fe:33:81:82:dd:fc:0f:64:
         54:8a:51:06:48:d4:06:45:23:45:62:ce:ce:67:18:df:ad:54:
         5a:71:3f:ff:b8:ac:06:8a:8f:03:cc:6a:65:e1:58:16:ba:6b:
         e9:cc:b2:c9:23:7d:41:3c:6b:99:40:77:ea:bc:d4:39:d4:b3:
         eb:57:53:0b:ca:5e:ac:7f:1a:5d:cf:59:0a:3c:ee:46:2b:c0:
         db:c9:e9:6d:ea:0a:1d:1a:94:6a:7a:f6:30:5b:9e:ed:3c:a2:
         67:84:2f:8a:39:16:94:22:de:cc:c8:a9:36:5f:e0:f6:e8:d8:
         06:f3:d6:41:10:89:01:67:7e:c8:e3:eb:d9:7c:38:7a:37:cc:
         b4:44:44:65:d5:82:27:27:c8:b0:b9:bb:8c:e2:5b:a1:9f:ea:
         44:63:56:dd:40:5f:6d:f9:1d:fc:2a:9a:32:57:bd:ce:69:91:
         53:bc:4a:1d:49:f8:62:ff:e3:a3:93:a2:c6:f3:fb:60:f7:fd:
         98:52:68:ff:e9:f2:03:74:85:79:57:00:de:98:31:ae:f2:b7:
         1e:14:15:d7:fb:a3:57:24:f9:c7:d3:13:b0:b9:ef:5c:e2:e8:
         c1:be:0d:84:21:c1:19:09:1d:3e:2f:6a:7d:b6:a6:07:d1:0b:
         0c:ce:09:e1:15:8d:84:df:57:96:34:59:c3:a2:71:ba:45:54:
         f4:2a:90:2f:51:3e:81:3a:b3:bb:2c:bf:32:da:19:b9:07:64:
         f3:da:67:2f:69:5d:37:af:47:a1:23:f6:ba:92:0d:5a:df:9d:
         c1:0a:57:92:ab:42:33:00:10:b6:22:35:61:3e:82:2d:30:09:
         77:5b:7a:8e:84:27:a3:a3:a0:35:f1:22:e0:49:a1:c9:df:ba:
         f0:f0:88:68:d7:c6:6c:e1:6b:db:c9:6d:7b:d7:e3:88:e4:83:
         22:b4:cd:08:2f:67:49:72:5e:0c:d9:01:6b:40:ca:35:90:a6:
         c5:d9:3d:a4:25:a0:ea:ec:ae:11:78:b1:7a:5e:cc:e4:a3:6c:
         08:f3:3a:39:0b:17:92:34:b9:5c:97:e9:01:23:dd:a6:1b:18:
         b5:b3:ae:9c:7e:02:c9:1a:cc:4b:d6:0e:f2:ba:bc:03:2c:00:
         24:b9:77:1d:30:1e:47:ea:1b:ca:de:f3:07:0a:51:ca:1a:e8:
         2d:a1:8b:09:e7:e2:b1:d6
-----BEGIN CERTIFICATE-----
MIIEiTCCAnGgAwIBAgIEf9keDzANBgkqhkiG9w0BAQsFADBCMQswCQYDVQQGEwJV
SzEPMA0GA1UECAwGTG9uZG9uMRAwDgYDVQQKDAdSZXZvbHV0MRAwDgYDVQQLDAdT
YW5kYm94MB4XDTIwMTIwNDA2Mzg1N1oXDTIxMTIwNDA2Mzg1N1owgcoxCzAJBgNV
BAYTAkdCMQ8wDQYDVQQIDAZMb25kb24xDzANBgNVBAcMBkxvbmRvbjEMMAoGA1UE
CgwDQ1RTMQswCQYDVQQLDAJJVDEYMBYGA1UEAwwPZGVlY29kZS5jdHMuY29tMSkw
JwYJKoZIhvcNAQkBFhpkYXJzaGFuLnNoYWhAY29nbml6YW50LmNvbTE5MDcGA1UE
YQwwUFNEVUstUkVWQ0EtYTRhZTg1M2YtNjMxZi00Nzg4LWFkZDUtNGQ4MGIxNGEz
NzgxMIIBIjANBgkqhkiG9w0BAQEFAAOCAQ8AMIIBCgKCAQEAxswAl3JdQl4mpVjF
kdxFl435fMyDLlLe5EXVSyvN60JxawBMxD8tS4DJd+kK2hEah9SbmJ92j135OI6x
ekK+Avcr3yRJVBbUXzdY+a64yLG8AmwxwKsqc2DGvQhQCs2imq+E4AMY4TbpP+as
3akqfdnWuaxqJQsDD4+OFKQpmld+T3xoFmHHflqi1Vv5fuSQhrXlCXBRiOeQTdgp
GYmeN+oKKZTvyt2+WYK4iFamPfG6vLTxpxImw1JPQvc9WtXoZ7JQRUPEa166MZVD
BT1whWal/KRlnQyzSLzbZUv6oJA96EXd/xt3elkAvY9qwEY15K6wZf9anszlEl8l
NVMK2QIDAQABMA0GCSqGSIb3DQEBCwUAA4ICAQCNkkuEEMIbxExki1IitcgZwJsd
WsrhT+noF0pucV5NaRAAGfbc8Lm5qzVAcq0V8XcuxMoum7UplBuAeEZjdIoU/jOB
gt38D2RUilEGSNQGRSNFYs7OZxjfrVRacT//uKwGio8DzGpl4VgWumvpzLLJI31B
PGuZQHfqvNQ51LPrV1MLyl6sfxpdz1kKPO5GK8Dbyelt6godGpRqevYwW57tPKJn
hC+KORaUIt7MyKk2X+D26NgG89ZBEIkBZ37I4+vZfDh6N8y0RERl1YInJ8iwubuM
4luhn+pEY1bdQF9t+R38KpoyV73OaZFTvEodSfhi/+Ojk6LG8/tg9/2YUmj/6fID
dIV5VwDemDGu8rceFBXX+6NXJPnH0xOwue9c4ujBvg2EIcEZCR0+L2p9tqYH0QsM
zgnhFY2E31eWNFnDonG6RVT0KpAvUT6BOrO7LL8y2hm5B2Tz2mcvaV03r0ehI/a6
kg1a353BCleSq0IzABC2IjVhPoItMAl3W3qOhCejo6A18SLgSaHJ37rw8Iho18Zs
4WvbyW171+OI5IMitM0IL2dJcl4M2QFrQMo1kKbF2T2kJaDq7K4ReLF6Xszko2wI
8zo5CxeSNLlcl+kBI92mGxi1s66cfgLJGsxL1g7yurwDLAAkuXcdMB5H6hvK3vMH
ClHKGugtoYsJ5+Kx1g==
-----END CERTIFICATE-----
